; Function Attrs: mustprogress nofree norecurse nosync nounwind willreturn memory(argmem: write) uwtable
define void @_ZN16checked_buffer_tC2EsPhi(ptr noundef nonnull writeonly align 8 captures(none) dereferenceable(48) initializes((0, 2), (8, 20), (24, 48)) %0, i16 noundef signext %1, ptr noundef %2, i32 noundef %3) unnamed_addr #19 align 2 {
  store i16 %1, ptr %0, align 8, !tbaa !160
  %5 = getelementptr inbounds nuw i8, ptr %0, i64 8
  store ptr %2, ptr %5, align 8, !tbaa !169
  %6 = getelementptr inbounds nuw i8, ptr %0, i64 16
  store i32 %3, ptr %6, align 8, !tbaa !170
  %7 = getelementptr inbounds nuw i8, ptr %0, i64 24
  tail call void @llvm.memset.p0.i64(ptr noundef nonnull align 8 dereferenceable(24) %7, i8 0, i64 24, i1 false)
  ret void
}